(dp0
S'Discipline'
p1
(iControllers.disciplineController
disciplineControl
p2
(dp3
S'_repo'
p4
(lp5
(iRepositoryes.DisciplineRepo
disciplineRepository
p6
(dp7
S'_disciplines'
p8
(lp9
(iClasses.Discipline
discipline
p10
(dp11
S'_disciplineID'
p12
I1
sS'_name'
p13
S'Fundamental of Programing'
p14
sba(iClasses.Discipline
discipline
p15
(dp16
g12
I2
sg13
S'ASC'
p17
sba(iClasses.Discipline
discipline
p18
(dp19
g12
I3
sg13
S'Computational Logic'
p20
sba(iClasses.Discipline
discipline
p21
(dp22
g12
I4
sg13
S'Algebra'
p23
sba(iClasses.Discipline
discipline
p24
(dp25
g12
I5
sg13
S'Mathematical Analysis '
p26
sba(iClasses.Discipline
discipline
p27
(dp28
g12
I6
sg13
S'Approximation theory'
p29
sba(iClasses.Discipline
discipline
p30
(dp31
g12
I7
sg13
S'Combinatorics'
p32
sba(iClasses.Discipline
discipline
p33
(dp34
g12
I8
sg13
S'Coding theory'
p35
sba(iClasses.Discipline
discipline
p36
(dp37
g12
I9
sg13
S'Cryptography'
p38
sba(iClasses.Discipline
discipline
p39
(dp40
g12
I10
sg13
S'Dynamical systems'
p41
sba(iClasses.Discipline
discipline
p42
(dp43
g12
I11
sg13
S'Chaos theory'
p44
sba(iClasses.Discipline
discipline
p45
(dp46
g12
I12
sg13
S'Fractal geometry'
p47
sba(iClasses.Discipline
discipline
p48
(dp49
g12
I13
sg13
S'Game theory'
p50
sba(iClasses.Discipline
discipline
p51
(dp52
g12
I14
sg13
S'Graph theory'
p53
sba(iClasses.Discipline
discipline
p54
(dp55
g12
I15
sg13
S'Information theory'
p56
sba(iClasses.Discipline
discipline
p57
(dp58
g12
I16
sg13
S'Logic in computer science'
p59
sba(iClasses.Discipline
discipline
p60
(dp61
g12
I17
sg13
S'Formal methods'
p62
sba(iClasses.Discipline
discipline
p63
(dp64
g12
I18
sg13
S'Logic programming'
p65
sba(iClasses.Discipline
discipline
p66
(dp67
g12
I19
sg13
S'Multi-valued logic'
p68
sba(iClasses.Discipline
discipline
p69
(dp70
g12
I20
sg13
S'Fuzzy logic'
p71
sba(iClasses.Discipline
discipline
p72
(dp73
g12
I21
sg13
S'Programming language semantics'
p74
sba(iClasses.Discipline
discipline
p75
(dp76
g12
I22
sg13
S'Type theory'
p77
sba(iClasses.Discipline
discipline
p78
(dp79
g12
I23
sg13
S'Computational geometry'
p80
sba(iClasses.Discipline
discipline
p81
(dp82
g12
I24
sg13
S'Distributed algorithms'
p83
sba(iClasses.Discipline
discipline
p84
(dp85
g12
I25
sg13
S'Parallel algorithms'
p86
sba(iClasses.Discipline
discipline
p87
(dp88
g12
I26
sg13
S'Randomized algorithms'
p89
sba(iClasses.Discipline
discipline
p90
(dp91
g12
I27
sg13
S'Artificial intelligence'
p92
sba(iClasses.Discipline
discipline
p93
(dp94
g12
I28
sg13
S'Cognitive science'
p95
sba(iClasses.Discipline
discipline
p96
(dp97
g12
I29
sg13
S'Automated reasoning'
p98
sba(iClasses.Discipline
discipline
p99
(dp100
g12
I30
sg13
S'Computer vision'
p101
sbasbasbsS'Grade'
p102
(iControllers.gradeController
gradeController
p103
(dp104
g4
(lp105
(iRepositoryes.GradeRepo
gradeRepository
p106
(dp107
S'_grades'
p108
(lp109
(iClasses.Grade
grade
p110
(dp111
S'_grade'
p112
(lp113
F10.0
aF10.0
asg12
I1
sS'_studentID'
p114
I1
sba(iClasses.Grade
grade
p115
(dp116
g112
(lp117
F10.0
aF10.0
asg12
I2
sg114
I1
sba(iClasses.Grade
grade
p118
(dp119
g112
(lp120
F10.0
aF10.0
asg12
I1
sg114
I2
sba(iClasses.Grade
grade
p121
(dp122
g112
(lp123
F3.0
aF4.0
asg12
I2
sg114
I2
sba(iClasses.Grade
grade
p124
(dp125
g112
(lp126
F10.0
aF9.0
asg12
I2
sg114
I3
sba(iClasses.Grade
grade
p127
(dp128
g112
(lp129
F4.0
aF5.0
asg12
I3
sg114
I3
sba(iClasses.Grade
grade
p130
(dp131
g112
(lp132
F10.0
aF8.0
asg12
I2
sg114
I4
sba(iClasses.Grade
grade
p133
(dp134
g112
(lp135
F6.0
aF5.0
asg12
I3
sg114
I4
sba(iClasses.Grade
grade
p136
(dp137
g112
(lp138
F8.0
aF8.0
asg12
I3
sg114
I5
sba(iClasses.Grade
grade
p139
(dp140
g112
(lp141
F5.0
aF4.0
asg12
I4
sg114
I5
sba(iClasses.Grade
grade
p142
(dp143
g112
(lp144
F8.0
aF7.0
asg12
I3
sg114
I6
sba(iClasses.Grade
grade
p145
(dp146
g112
(lp147
F6.0
aF5.0
asg12
I4
sg114
I6
sba(iClasses.Grade
grade
p148
(dp149
g112
(lp150
F7.0
aF5.0
asg12
I4
sg114
I7
sba(iClasses.Grade
grade
p151
(dp152
g112
(lp153
F7.0
aF6.0
asg12
I5
sg114
I7
sba(iClasses.Grade
grade
p154
(dp155
g112
(lp156
F2.0
aF4.0
asg12
I4
sg114
I8
sba(iClasses.Grade
grade
p157
(dp158
g112
(lp159
F6.0
aF5.0
asg12
I5
sg114
I8
sba(iClasses.Grade
grade
p160
(dp161
g112
(lp162
F4.0
aF6.0
asg12
I5
sg114
I9
sba(iClasses.Grade
grade
p163
(dp164
g112
(lp165
F4.0
aF7.0
asg12
I1
sg114
I9
sba(iClasses.Grade
grade
p166
(dp167
g112
(lp168
F4.0
aF3.0
asg12
I5
sg114
I10
sba(iClasses.Grade
grade
p169
(dp170
g112
(lp171
F10.0
aF8.0
asg12
I2
sg114
I10
sbasbasbsS'Enroll'
p172
(iControllers.enrollController
enrollController
p173
(dp174
g4
(lp175
(iRepositoryes.EnrollRepo
enrollRepository
p176
(dp177
S'_enrolment'
p178
(lp179
(iClasses.StudentEnrolment
enroll
p180
(dp181
g12
I1
sg114
I1
sba(iClasses.StudentEnrolment
enroll
p182
(dp183
g12
I2
sg114
I1
sba(iClasses.StudentEnrolment
enroll
p184
(dp185
g12
I1
sg114
I2
sba(iClasses.StudentEnrolment
enroll
p186
(dp187
g12
I2
sg114
I2
sba(iClasses.StudentEnrolment
enroll
p188
(dp189
g12
I2
sg114
I3
sba(iClasses.StudentEnrolment
enroll
p190
(dp191
g12
I3
sg114
I3
sba(iClasses.StudentEnrolment
enroll
p192
(dp193
g12
I2
sg114
I4
sba(iClasses.StudentEnrolment
enroll
p194
(dp195
g12
I3
sg114
I4
sba(iClasses.StudentEnrolment
enroll
p196
(dp197
g12
I3
sg114
I5
sba(iClasses.StudentEnrolment
enroll
p198
(dp199
g12
I4
sg114
I5
sba(iClasses.StudentEnrolment
enroll
p200
(dp201
g12
I3
sg114
I6
sba(iClasses.StudentEnrolment
enroll
p202
(dp203
g12
I4
sg114
I6
sba(iClasses.StudentEnrolment
enroll
p204
(dp205
g12
I4
sg114
I7
sba(iClasses.StudentEnrolment
enroll
p206
(dp207
g12
I5
sg114
I7
sba(iClasses.StudentEnrolment
enroll
p208
(dp209
g12
I4
sg114
I8
sba(iClasses.StudentEnrolment
enroll
p210
(dp211
g12
I5
sg114
I8
sba(iClasses.StudentEnrolment
enroll
p212
(dp213
g12
I5
sg114
I9
sba(iClasses.StudentEnrolment
enroll
p214
(dp215
g12
I1
sg114
I9
sba(iClasses.StudentEnrolment
enroll
p216
(dp217
g12
I5
sg114
I10
sba(iClasses.StudentEnrolment
enroll
p218
(dp219
g12
I6
sg114
I11
sba(iClasses.StudentEnrolment
enroll
p220
(dp221
g12
I7
sg114
I12
sba(iClasses.StudentEnrolment
enroll
p222
(dp223
g12
I8
sg114
I13
sba(iClasses.StudentEnrolment
enroll
p224
(dp225
g12
I9
sg114
I14
sba(iClasses.StudentEnrolment
enroll
p226
(dp227
g12
I10
sg114
I15
sba(iClasses.StudentEnrolment
enroll
p228
(dp229
g12
I11
sg114
I16
sba(iClasses.StudentEnrolment
enroll
p230
(dp231
g12
I12
sg114
I17
sba(iClasses.StudentEnrolment
enroll
p232
(dp233
g12
I13
sg114
I18
sba(iClasses.StudentEnrolment
enroll
p234
(dp235
g12
I14
sg114
I19
sba(iClasses.StudentEnrolment
enroll
p236
(dp237
g12
I15
sg114
I20
sba(iClasses.StudentEnrolment
enroll
p238
(dp239
g12
I16
sg114
I21
sba(iClasses.StudentEnrolment
enroll
p240
(dp241
g12
I17
sg114
I22
sba(iClasses.StudentEnrolment
enroll
p242
(dp243
g12
I18
sg114
I23
sba(iClasses.StudentEnrolment
enroll
p244
(dp245
g12
I19
sg114
I24
sba(iClasses.StudentEnrolment
enroll
p246
(dp247
g12
I20
sg114
I25
sba(iClasses.StudentEnrolment
enroll
p248
(dp249
g12
I21
sg114
I26
sba(iClasses.StudentEnrolment
enroll
p250
(dp251
g12
I22
sg114
I27
sba(iClasses.StudentEnrolment
enroll
p252
(dp253
g12
I23
sg114
I28
sba(iClasses.StudentEnrolment
enroll
p254
(dp255
g12
I24
sg114
I29
sba(iClasses.StudentEnrolment
enroll
p256
(dp257
g12
I25
sg114
I30
sba(iClasses.StudentEnrolment
enroll
p258
(dp259
g12
I26
sg114
I31
sba(iClasses.StudentEnrolment
enroll
p260
(dp261
g12
I27
sg114
I31
sba(iClasses.StudentEnrolment
enroll
p262
(dp263
g12
I28
sg114
I31
sba(iClasses.StudentEnrolment
enroll
p264
(dp265
g12
I29
sg114
I32
sba(iClasses.StudentEnrolment
enroll
p266
(dp267
g12
I30
sg114
I32
sbasbasbsS'Student'
p268
(iControllers.studentController
studentControl
p269
(dp270
g4
(lp271
(iRepositoryes.StudentRepo
studentRepository
p272
(dp273
S'_students'
p274
(lp275
(iClasses.Student
student
p276
(dp277
g114
I1
sg13
S'Stefania Matei'
p278
sba(iClasses.Student
student
p279
(dp280
g114
I2
sg13
S'Andrei Mihu'
p281
sba(iClasses.Student
student
p282
(dp283
g114
I3
sg13
S'Andreea Dinu'
p284
sba(iClasses.Student
student
p285
(dp286
g114
I4
sg13
S'Mihai Alexescu'
p287
sba(iClasses.Student
student
p288
(dp289
g114
I5
sg13
S'Mihaela Opri'
p290
sba(iClasses.Student
student
p291
(dp292
g114
I6
sg13
S'Ion Dinu '
p293
sba(iClasses.Student
student
p294
(dp295
g114
I7
sg13
S'Ioana Eset'
p296
sba(iClasses.Student
student
p297
(dp298
g114
I8
sg13
S'Dorin Juve'
p299
sba(iClasses.Student
student
p300
(dp301
g114
I9
sg13
S'Dorina Popovici'
p302
sba(iClasses.Student
student
p303
(dp304
g114
I10
sg13
S'Catalin Cui '
p305
sba(iClasses.Student
student
p306
(dp307
g114
I11
sg13
S'Billy Parramore'
p308
sba(iClasses.Student
student
p309
(dp310
g114
I12
sg13
S'Katy Kyker'
p311
sba(iClasses.Student
student
p312
(dp313
g114
I13
sg13
S'Milagro Wisner'
p314
sba(iClasses.Student
student
p315
(dp316
g114
I14
sg13
S'Elli Worthen'
p317
sba(iClasses.Student
student
p318
(dp319
g114
I15
sg13
S'Carroll Polly'
p320
sba(iClasses.Student
student
p321
(dp322
g114
I16
sg13
S'Hallie Diggins'
p323
sba(iClasses.Student
student
p324
(dp325
g114
I17
sg13
S'Jeanene Hynson'
p326
sba(iClasses.Student
student
p327
(dp328
g114
I18
sg13
S'Lenny Paulino'
p329
sba(iClasses.Student
student
p330
(dp331
g114
I19
sg13
S'Xochitl Link'
p332
sba(iClasses.Student
student
p333
(dp334
g114
I20
sg13
S'Tamar Tibbles'
p335
sba(iClasses.Student
student
p336
(dp337
g114
I21
sg13
S'Mindi Lute'
p338
sba(iClasses.Student
student
p339
(dp340
g114
I22
sg13
S'Satan Veneziano'
p341
sba(iClasses.Student
student
p342
(dp343
g114
I23
sg13
S'Marylyn Seligman'
p344
sba(iClasses.Student
student
p345
(dp346
g114
I24
sg13
S'Sharita Sumler'
p347
sba(iClasses.Student
student
p348
(dp349
g114
I26
sg13
S'Kathryne Alkire'
p350
sba(iClasses.Student
student
p351
(dp352
g114
I27
sg13
S'Rudy Bridges'
p353
sba(iClasses.Student
student
p354
(dp355
g114
I28
sg13
S'Sharon Mericle'
p356
sba(iClasses.Student
student
p357
(dp358
g114
I29
sg13
S'Leeanna Motyka'
p359
sba(iClasses.Student
student
p360
(dp361
g114
I30
sg13
S'Gwyneth Cullen'
p362
sba(iClasses.Student
student
p363
(dp364
g114
I31
sg13
S'Jody Neufeld'
p365
sba(iClasses.Student
student
p366
(dp367
g114
I32
sg13
S'Ezio Auditore'
p368
sba(iClasses.Student
student
p369
(dp370
g114
I132
sg13
S'adad'
p371
sbasbasbs.